target datalayout = "e-m:e-p270:32:32-p271:32:32-p272:64:64-i64:64-i128:128-f80:128-n8:16:32:64-S128"
target triple = "x86_64-pc-linux-gnu"

%"struct.Luau::FValue" = type { i8, i8, ptr, ptr }
%struct.luaL_Reg = type { ptr, ptr }

@_ZN5FFlag32LuauUserTypeFunTypeofReturnsTypeE = dso_local global %"struct.Luau::FValue" zeroinitializer, align 8
@.str.67 = private unnamed_addr constant [5 x i8] c"type\00", align 1
@.str.112 = private unnamed_addr constant [7 x i8] c"__type\00", align 1
@.str.113 = private unnamed_addr constant [24 x i8] c"The metatable is locked\00", align 1
@.str.114 = private unnamed_addr constant [12 x i8] c"__metatable\00", align 1
@.str.115 = private unnamed_addr constant [5 x i8] c"__eq\00", align 1
@.str.116 = private unnamed_addr constant [8 x i8] c"__index\00", align 1

; Function Attrs: alwaysinline mustprogress nounwind uwtable
define linkonce_odr dso_local noundef zeroext i1 @_ZNK4Luau6FValueIbEcvbEv(ptr noundef nonnull align 8 dereferenceable(24) %0) #9 comdat align 2 {
  %2 = alloca ptr, align 8
  store ptr %0, ptr %2, align 8, !tbaa !8
  %3 = load ptr, ptr %2, align 8
  %4 = getelementptr inbounds nuw %"struct.Luau::FValue", ptr %3, i32 0, i32 0
  %5 = load i8, ptr %4, align 8, !tbaa !17, !range !15, !noundef !16
  %6 = trunc i8 %5 to i1
  ret i1 %6
}

; Function Attrs: mustprogress uwtable
define dso_local void @_ZN4Luau20registerTypeUserDataEP9lua_State(ptr noundef %0) #3 {
  %2 = alloca ptr, align 8
  %3 = alloca [30 x %struct.luaL_Reg], align 16
  store ptr %0, ptr %2, align 8, !tbaa !25
  call void @llvm.lifetime.start.p0(i64 480, ptr %3) #17
  call void @llvm.memcpy.p0.p0.i64(ptr align 16 %3, ptr align 16 @__const._ZN4Luau20registerTypeUserDataEP9lua_State.typeUserdataMethods, i64 480, i1 false)
  %4 = load ptr, ptr %2, align 8, !tbaa !25
  %5 = call noundef i32 @_Z17luaL_newmetatableP9lua_StatePKc(ptr noundef %4, ptr noundef @.str.67)
  %6 = call noundef zeroext i1 @_ZNK4Luau6FValueIbEcvbEv(ptr noundef nonnull align 8 dereferenceable(24) @_ZN5FFlag32LuauUserTypeFunTypeofReturnsTypeE)
  br i1 %6, label %7, label %10

7:                                                ; preds = %1
  %8 = load ptr, ptr %2, align 8, !tbaa !25
  call void @_Z14lua_pushstringP9lua_StatePKc(ptr noundef %8, ptr noundef @.str.67)
  %9 = load ptr, ptr %2, align 8, !tbaa !25
  call void @_Z12lua_setfieldP9lua_StateiPKc(ptr noundef %9, i32 noundef -2, ptr noundef @.str.112)
  br label %10

10:                                               ; preds = %7, %1
  %11 = load ptr, ptr %2, align 8, !tbaa !25
  call void @_Z14lua_pushstringP9lua_StatePKc(ptr noundef %11, ptr noundef @.str.113)
  %12 = load ptr, ptr %2, align 8, !tbaa !25
  call void @_Z12lua_setfieldP9lua_StateiPKc(ptr noundef %12, i32 noundef -2, ptr noundef @.str.114)
  %13 = load ptr, ptr %2, align 8, !tbaa !25
  call void @_Z17lua_pushcclosurekP9lua_StatePFiS0_EPKciPFiS0_iE(ptr noundef %13, ptr noundef @_ZN4LuauL13isEqualToTypeEP9lua_State, ptr noundef @.str.115, i32 noundef 0, ptr noundef null)
  %14 = load ptr, ptr %2, align 8, !tbaa !25
  call void @_Z12lua_setfieldP9lua_StateiPKc(ptr noundef %14, i32 noundef -2, ptr noundef @.str.115)
  %15 = load ptr, ptr %2, align 8, !tbaa !25
  call void @_Z15lua_createtableP9lua_Stateii(ptr noundef %15, i32 noundef 0, i32 noundef 0)
  %16 = load ptr, ptr %2, align 8, !tbaa !25
  %17 = getelementptr inbounds [30 x %struct.luaL_Reg], ptr %3, i64 0, i64 0
  call void @_Z13luaL_registerP9lua_StatePKcPK8luaL_Reg(ptr noundef %16, ptr noundef null, ptr noundef %17)
  %18 = load ptr, ptr %2, align 8, !tbaa !25
  call void @_Z15lua_setreadonlyP9lua_Stateii(ptr noundef %18, i32 noundef -1, i32 noundef 1)
  %19 = load ptr, ptr %2, align 8, !tbaa !25
  call void @_Z17lua_pushcclosurekP9lua_StatePFiS0_EPKciPFiS0_iE(ptr noundef %19, ptr noundef @_ZN4LuauL17typeUserdataIndexEP9lua_State, ptr noundef @.str.116, i32 noundef 1, ptr noundef null)
  %20 = load ptr, ptr %2, align 8, !tbaa !25
  call void @_Z12lua_setfieldP9lua_StateiPKc(ptr noundef %20, i32 noundef -2, ptr noundef @.str.116)
  %21 = load ptr, ptr %2, align 8, !tbaa !25
  call void @_Z15lua_setreadonlyP9lua_Stateii(ptr noundef %21, i32 noundef -1, i32 noundef 1)
  %22 = load ptr, ptr %2, align 8, !tbaa !25
  call void @_Z10lua_settopP9lua_Statei(ptr noundef %22, i32 noundef -2)
  %23 = load ptr, ptr %2, align 8, !tbaa !25
  call void @_Z19lua_setuserdatadtorP9lua_StateiPFvS0_PvE(ptr noundef %23, i32 noundef 42, ptr noundef @_ZN4Luau19deallocTypeUserDataEP9lua_StatePv)
  call void @llvm.lifetime.end.p0(i64 480, ptr %3) #17
  ret void
}