; Function Attrs: mustprogress uwtable
define dso_local void @_ZN4Luau20registerTypeUserDataEP9lua_State(ptr noundef %0) local_unnamed_addr #2 {
  %2 = alloca [30 x %struct.luaL_Reg], align 16
  call void @llvm.lifetime.start.p0(i64 480, ptr nonnull %2) #27
  call void @llvm.memcpy.p0.p0.i64(ptr noundef nonnull align 16 dereferenceable(480) %2, ptr noundef nonnull align 16 dereferenceable(480) @__const._ZN4Luau20registerTypeUserDataEP9lua_State.typeUserdataMethods, i64 480, i1 false)
  %3 = tail call noundef i32 @_Z17luaL_newmetatableP9lua_StatePKc(ptr noundef %0, ptr noundef nonnull @.str.67)
  %4 = load i8, ptr @_ZN5FFlag32LuauUserTypeFunTypeofReturnsTypeE, align 8, !tbaa !98, !range !101, !noundef !102
  %5 = trunc nuw i8 %4 to i1
  br i1 %5, label %6, label %7

6:                                                ; preds = %1
  tail call void @_Z14lua_pushstringP9lua_StatePKc(ptr noundef %0, ptr noundef nonnull @.str.67)
  tail call void @_Z12lua_setfieldP9lua_StateiPKc(ptr noundef %0, i32 noundef -2, ptr noundef nonnull @.str.112)
  br label %7

7:                                                ; preds = %6, %1
  tail call void @_Z14lua_pushstringP9lua_StatePKc(ptr noundef %0, ptr noundef nonnull @.str.113)
  tail call void @_Z12lua_setfieldP9lua_StateiPKc(ptr noundef %0, i32 noundef -2, ptr noundef nonnull @.str.114)
  tail call void @_Z17lua_pushcclosurekP9lua_StatePFiS0_EPKciPFiS0_iE(ptr noundef %0, ptr noundef nonnull @_ZN4LuauL13isEqualToTypeEP9lua_State, ptr noundef nonnull @.str.115, i32 noundef 0, ptr noundef null)
  tail call void @_Z12lua_setfieldP9lua_StateiPKc(ptr noundef %0, i32 noundef -2, ptr noundef nonnull @.str.115)
  tail call void @_Z15lua_createtableP9lua_Stateii(ptr noundef %0, i32 noundef 0, i32 noundef 0)
  call void @_Z13luaL_registerP9lua_StatePKcPK8luaL_Reg(ptr noundef %0, ptr noundef null, ptr noundef nonnull %2)
  call void @_Z15lua_setreadonlyP9lua_Stateii(ptr noundef %0, i32 noundef -1, i32 noundef 1)
  call void @_Z17lua_pushcclosurekP9lua_StatePFiS0_EPKciPFiS0_iE(ptr noundef %0, ptr noundef nonnull @_ZN4LuauL17typeUserdataIndexEP9lua_State, ptr noundef nonnull @.str.116, i32 noundef 1, ptr noundef null)
  call void @_Z12lua_setfieldP9lua_StateiPKc(ptr noundef %0, i32 noundef -2, ptr noundef nonnull @.str.116)
  call void @_Z15lua_setreadonlyP9lua_Stateii(ptr noundef %0, i32 noundef -1, i32 noundef 1)
  call void @_Z10lua_settopP9lua_Statei(ptr noundef %0, i32 noundef -2)
  call void @_Z19lua_setuserdatadtorP9lua_StateiPFvS0_PvE(ptr noundef %0, i32 noundef 42, ptr noundef nonnull @_ZN4Luau19deallocTypeUserDataEP9lua_StatePv)
  call void @llvm.lifetime.end.p0(i64 480, ptr nonnull %2) #27
  ret void
}